; Function Attrs: nounwind sspstrong uwtable
define internal void @vfio_intx_interrupt(ptr noundef %0) #0 {
  %2 = alloca %struct.timeval, align 8
  %3 = getelementptr inbounds nuw i8, ptr %0, i64 2972
  %4 = tail call i32 @event_notifier_test_and_clear(ptr noundef nonnull %3) #26
  %.not = icmp eq i32 %4, 0
  br i1 %.not, label %43, label %5

5:                                                ; preds = %1
  %6 = getelementptr inbounds nuw i8, ptr %0, i64 2968
  %7 = getelementptr inbounds nuw i8, ptr %0, i64 2824
  %8 = load ptr, ptr %7, align 8
  %9 = getelementptr inbounds nuw i8, ptr %0, i64 2970
  %10 = load i8, ptr %9, align 2
  %11 = add i8 %10, 65
  %12 = load i32, ptr @trace_events_enabled_count, align 4
  %.not.i.i = icmp eq i32 %12, 0
  br i1 %.not.i.i, label %trace_vfio_intx_interrupt.exit, label %13, !prof !5

13:                                               ; preds = %5
  %14 = load i16, ptr @_TRACE_VFIO_INTX_INTERRUPT_DSTATE, align 2
  %.not3.i.i = icmp eq i16 %14, 0
  br i1 %.not3.i.i, label %trace_vfio_intx_interrupt.exit, label %15

15:                                               ; preds = %13
  %16 = load i32, ptr @qemu_loglevel, align 4
  %17 = and i32 %16, 32768
  %.not4.i.i = icmp eq i32 %17, 0
  br i1 %.not4.i.i, label %trace_vfio_intx_interrupt.exit, label %18

18:                                               ; preds = %15
  %19 = load i8, ptr @message_with_timestamp, align 1, !range !6, !noundef !7
  %20 = trunc nuw i8 %19 to i1
  br i1 %20, label %21, label %28

21:                                               ; preds = %18
  call void @llvm.lifetime.start.p0(i64 16, ptr nonnull %2) #26
  call void @llvm.memset.p0.i64(ptr noundef nonnull align 8 dereferenceable(16) %2, i8 0, i64 16, i1 false), !annotation !4
  %22 = call i32 @gettimeofday(ptr noundef nonnull %2, ptr noundef null) #26
  %23 = tail call i32 @qemu_get_thread_id() #26
  %24 = load i64, ptr %2, align 8
  %25 = getelementptr inbounds nuw i8, ptr %2, i64 8
  %26 = load i64, ptr %25, align 8
  %27 = sext i8 %11 to i32
  tail call void (ptr, ...) @qemu_log(ptr noundef nonnull @.str.59, i32 noundef %23, i64 noundef %24, i64 noundef %26, ptr noundef %8, i32 noundef %27) #26
  call void @llvm.lifetime.end.p0(i64 16, ptr nonnull %2) #26
  br label %trace_vfio_intx_interrupt.exit

28:                                               ; preds = %18
  %29 = sext i8 %11 to i32
  tail call void (ptr, ...) @qemu_log(ptr noundef nonnull @.str.60, ptr noundef %8, i32 noundef %29) #26
  br label %trace_vfio_intx_interrupt.exit

trace_vfio_intx_interrupt.exit:                   ; preds = %5, %13, %15, %21, %28
  store i8 1, ptr %6, align 8
  tail call void @pci_set_irq(ptr noundef nonnull %0, i32 noundef 1) #26
  %30 = getelementptr inbounds nuw i8, ptr %0, i64 3096
  br label %31

31:                                               ; preds = %31, %trace_vfio_intx_interrupt.exit
  %indvars.iv.i = phi i64 [ 0, %trace_vfio_intx_interrupt.exit ], [ %indvars.iv.next.i, %31 ]
  %32 = getelementptr inbounds nuw [6 x %struct.VFIOBAR], ptr %30, i64 0, i64 %indvars.iv.i
  tail call void @vfio_region_mmaps_set_enabled(ptr noundef nonnull %32, i1 noundef zeroext false) #26
  %indvars.iv.next.i = add nuw nsw i64 %indvars.iv.i, 1
  %exitcond.not.i = icmp eq i64 %indvars.iv.next.i, 6
  br i1 %exitcond.not.i, label %vfio_mmap_set_enabled.exit, label %31, !llvm.loop !25

vfio_mmap_set_enabled.exit:                       ; preds = %31
  %33 = getelementptr inbounds nuw i8, ptr %0, i64 3004
  %34 = load i32, ptr %33, align 4
  %.not10 = icmp eq i32 %34, 0
  br i1 %.not10, label %43, label %35

35:                                               ; preds = %vfio_mmap_set_enabled.exit
  %36 = getelementptr inbounds nuw i8, ptr %0, i64 3008
  %37 = load ptr, ptr %36, align 8
  %38 = tail call i64 @qemu_clock_get_ns(i32 noundef 1) #26
  %39 = sdiv i64 %38, 1000000
  %40 = load i32, ptr %33, align 4
  %41 = zext i32 %40 to i64
  %42 = add nsw i64 %39, %41
  tail call void @timer_mod(ptr noundef %37, i64 noundef %42) #26
  br label %43

43:                                               ; preds = %vfio_mmap_set_enabled.exit, %35, %1
  ret void
}